	.file	"example9.c"
	.text
	.globl	boo
	.type	boo, @function
boo:
.LFB0:
	.cfi_startproc
	pushq	%rbp
	.cfi_def_cfa_offset 16
	.cfi_offset 6, -16
	movq	%rsp, %rbp
	.cfi_def_cfa_register 6
	movq	%rdi, -56(%rbp)
	movq	%rsi, -64(%rbp)
	movq	$12, -8(%rbp)
	movq	$24, -16(%rbp)
	movq	-56(%rbp), %rdx
	movq	-8(%rbp), %rax
	addq	%rdx, %rax
	movq	%rax, -24(%rbp)
	movq	-64(%rbp), %rax
	imulq	-16(%rbp), %rax
	movq	%rax, -32(%rbp)
	movq	-32(%rbp), %rax
	subq	-24(%rbp), %rax
	movq	%rax, -40(%rbp)
	movq	-24(%rbp), %rax
	popq	%rbp
	.cfi_def_cfa 7, 8
	ret
	.cfi_endproc
.LFE0:
	.size	boo, .-boo
	.globl	foo
	.type	foo, @function
foo:
.LFB1:
	.cfi_startproc
	pushq	%rbp
	.cfi_def_cfa_offset 16
	.cfi_offset 6, -16
	movq	%rsp, %rbp
	.cfi_def_cfa_register 6
	subq	$64, %rsp
	movq	%rdi, -56(%rbp)
	movq	%rsi, -64(%rbp)
	movq	$12, -8(%rbp)
	movq	$24, -16(%rbp)
	movq	-56(%rbp), %rdx
	movq	-8(%rbp), %rax
	addq	%rdx, %rax
	movq	%rax, -24(%rbp)
	movq	-24(%rbp), %rdx
	movq	-16(%rbp), %rax
	movq	%rdx, %rsi
	movq	%rax, %rdi
	call	boo
	movq	%rax, -32(%rbp)
	movq	-32(%rbp), %rax
	subq	-24(%rbp), %rax
	movq	%rax, -40(%rbp)
	movq	-40(%rbp), %rax
	leave
	.cfi_def_cfa 7, 8
	ret
	.cfi_endproc
.LFE1:
	.size	foo, .-foo
	.ident	"GCC: (GNU) 12.1.1 20220507 (Red Hat 12.1.1-1)"
	.section	.note.GNU-stack,"",@progbits
